; Function Attrs: mustprogress uwtable
define void @_ZN5faiss15OperatingPointsC2Ev(ptr noundef nonnull align 8 dereferenceable(48) %0) unnamed_addr #0 align 2 personality ptr @__gxx_personality_v0 {
  tail call void @llvm.memset.p0.i64(ptr noundef nonnull align 8 dereferenceable(48) %0, i8 0, i64 48, i1 false)
  invoke void @_ZN5faiss15OperatingPoints5clearEv(ptr noundef nonnull align 8 dereferenceable(48) %0)
          to label %2 unwind label %3

2:                                                ; preds = %1
  ret void

3:                                                ; preds = %1
  %4 = landingpad { ptr, i32 }
          cleanup
  %5 = getelementptr inbounds i8, ptr %0, i64 24
  tail call void @_ZNSt6vectorIN5faiss14OperatingPointESaIS1_EED2Ev(ptr noundef nonnull align 8 dereferenceable(24) %5) #14
  tail call void @_ZNSt6vectorIN5faiss14OperatingPointESaIS1_EED2Ev(ptr noundef nonnull align 8 dereferenceable(24) %0) #14
  resume { ptr, i32 } %4
}